; Function Attrs: mustprogress uwtable
define dso_local noundef nonnull align 8 dereferenceable(24) ptr @_ZN7doctest6StringaSERKS0_(ptr noundef nonnull returned align 8 dereferenceable(24) %0, ptr noundef nonnull readonly align 8 dereferenceable(24) %1) local_unnamed_addr #8 align 2 {
  %.not = icmp eq ptr %0, %1
  br i1 %.not, label %_ZN7doctest6String4copyERKS0_.exit, label %3

3:                                                ; preds = %2
  %4 = getelementptr inbounds nuw i8, ptr %0, i64 23
  %5 = load i8, ptr %4, align 1, !tbaa !38
  %6 = icmp sgt i8 %5, -1
  br i1 %6, label %11, label %7

7:                                                ; preds = %3
  %8 = load ptr, ptr %0, align 8, !tbaa !38
  %9 = icmp eq ptr %8, null
  br i1 %9, label %11, label %10

10:                                               ; preds = %7
  tail call void @_ZdaPv(ptr noundef nonnull %8) #48
  br label %11

11:                                               ; preds = %7, %10, %3
  %12 = getelementptr inbounds nuw i8, ptr %1, i64 23
  %13 = load i8, ptr %12, align 1, !tbaa !38
  %14 = icmp sgt i8 %13, -1
  br i1 %14, label %15, label %16

15:                                               ; preds = %11
  tail call void @llvm.memcpy.p0.p0.i64(ptr noundef nonnull align 8 dereferenceable(24) %0, ptr noundef nonnull readonly align 8 dereferenceable(24) %1, i64 24, i1 false)
  br label %_ZN7doctest6String4copyERKS0_.exit

16:                                               ; preds = %11
  %17 = getelementptr inbounds nuw i8, ptr %1, i64 8
  %18 = load i32, ptr %17, align 8, !tbaa !38
  %19 = icmp ult i32 %18, 24
  br i1 %19, label %20, label %25

20:                                               ; preds = %16
  %21 = zext nneg i32 %18 to i64
  %22 = getelementptr inbounds nuw [24 x i8], ptr %0, i64 0, i64 %21
  store i8 0, ptr %22, align 1, !tbaa !38
  %23 = trunc nuw i32 %18 to i8
  %24 = sub nuw nsw i8 23, %23
  store i8 %24, ptr %4, align 1, !tbaa !38
  br label %_ZN7doctest6String8allocateEj.exit.i

25:                                               ; preds = %16
  store i8 -128, ptr %4, align 1, !tbaa !38
  %26 = getelementptr inbounds nuw i8, ptr %0, i64 8
  store i32 %18, ptr %26, align 8, !tbaa !38
  %27 = add i32 %18, 1
  %28 = getelementptr inbounds nuw i8, ptr %0, i64 12
  store i32 %27, ptr %28, align 4, !tbaa !38
  %29 = zext i32 %27 to i64
  %30 = tail call noalias noundef nonnull ptr @_Znam(i64 noundef %29) #51
  store ptr %30, ptr %0, align 8, !tbaa !38
  %31 = zext i32 %18 to i64
  %32 = getelementptr inbounds nuw i8, ptr %30, i64 %31
  store i8 0, ptr %32, align 1, !tbaa !38
  br label %_ZN7doctest6String8allocateEj.exit.i

_ZN7doctest6String8allocateEj.exit.i:             ; preds = %25, %20
  %.0.i.i = phi ptr [ %0, %20 ], [ %30, %25 ]
  %33 = load ptr, ptr %1, align 8, !tbaa !38
  %34 = load i32, ptr %17, align 8, !tbaa !38
  %35 = zext i32 %34 to i64
  tail call void @llvm.memcpy.p0.p0.i64(ptr nonnull align 1 %.0.i.i, ptr align 1 %33, i64 %35, i1 false)
  br label %_ZN7doctest6String4copyERKS0_.exit

_ZN7doctest6String4copyERKS0_.exit:               ; preds = %_ZN7doctest6String8allocateEj.exit.i, %15, %2
  ret ptr %0
}